target datalayout = "e-m:e-p270:32:32-p271:32:32-p272:64:64-i64:64-i128:128-f80:128-n8:16:32:64-S128"
target triple = "x86_64-pc-linux-gnu"

%struct.FrameProgress = type { [2 x i32], [2 x ptr], %union.pthread_mutex_t, %union.pthread_cond_t, i8, i8 }
%union.pthread_mutex_t = type { %struct.__pthread_mutex_s }
%struct.__pthread_mutex_s = type { i32, i32, i32, i32, i32, i16, i16, %struct.__pthread_internal_list }
%struct.__pthread_internal_list = type { ptr, ptr }
%union.pthread_cond_t = type { %struct.__pthread_cond_s }
%struct.__pthread_cond_s = type { %union.__atomic_wide_counter, %union.__atomic_wide_counter, [2 x i32], [2 x i32], i32, i32, [2 x i32] }
%union.__atomic_wide_counter = type { i64 }
%union.AVRefStructOpaque = type { ptr }

; Function Attrs: nounwind uwtable
define internal void @free_progress(ptr %0, ptr noundef %1) #0 {
  %3 = alloca %union.AVRefStructOpaque, align 8
  %4 = alloca ptr, align 8
  %5 = alloca ptr, align 8
  %6 = getelementptr inbounds nuw %union.AVRefStructOpaque, ptr %3, i32 0, i32 0
  store ptr %0, ptr %6, align 8
  store ptr %1, ptr %4, align 8, !tbaa !264
  call void @llvm.lifetime.start.p0(i64 8, ptr %5) #7
  %7 = load ptr, ptr %4, align 8, !tbaa !264
  store ptr %7, ptr %5, align 8, !tbaa !248
  %8 = load ptr, ptr %5, align 8, !tbaa !248
  %9 = getelementptr inbounds nuw %struct.FrameProgress, ptr %8, i32 0, i32 5
  %10 = load i8, ptr %9, align 1, !tbaa !263
  %11 = icmp ne i8 %10, 0
  br i1 %11, label %12, label %16

12:                                               ; preds = %2
  %13 = load ptr, ptr %5, align 8, !tbaa !248
  %14 = getelementptr inbounds nuw %struct.FrameProgress, ptr %13, i32 0, i32 3
  %15 = call i32 @pthread_cond_destroy(ptr noundef %14) #7
  br label %16

16:                                               ; preds = %12, %2
  %17 = load ptr, ptr %5, align 8, !tbaa !248
  %18 = getelementptr inbounds nuw %struct.FrameProgress, ptr %17, i32 0, i32 4
  %19 = load i8, ptr %18, align 8, !tbaa !261
  %20 = icmp ne i8 %19, 0
  br i1 %20, label %21, label %25

21:                                               ; preds = %16
  %22 = load ptr, ptr %5, align 8, !tbaa !248
  %23 = getelementptr inbounds nuw %struct.FrameProgress, ptr %22, i32 0, i32 2
  %24 = call i32 @pthread_mutex_destroy(ptr noundef %23) #7
  br label %25

25:                                               ; preds = %21, %16
  call void @llvm.lifetime.end.p0(i64 8, ptr %5) #7
  ret void
}