; Function Attrs: nounwind uwtable
define internal void @free_progress(ptr readnone captures(none) %0, ptr noundef %1) #0 {
  %3 = getelementptr inbounds nuw i8, ptr %1, i64 113
  %4 = load i8, ptr %3, align 1, !tbaa !152
  %.not = icmp eq i8 %4, 0
  br i1 %.not, label %8, label %5

5:                                                ; preds = %2
  %6 = getelementptr inbounds nuw i8, ptr %1, i64 64
  %7 = tail call i32 @pthread_cond_destroy(ptr noundef nonnull %6) #9
  br label %8

8:                                                ; preds = %5, %2
  %9 = getelementptr inbounds nuw i8, ptr %1, i64 112
  %10 = load i8, ptr %9, align 8, !tbaa !150
  %.not5 = icmp eq i8 %10, 0
  br i1 %.not5, label %14, label %11

11:                                               ; preds = %8
  %12 = getelementptr inbounds nuw i8, ptr %1, i64 24
  %13 = tail call i32 @pthread_mutex_destroy(ptr noundef nonnull %12) #9
  br label %14

14:                                               ; preds = %11, %8
  ret void
}